Number                                    Date                          Duration            Type                          Status              
+442073205650                             9 Jan 2015 16:01              0:03:48             Outgoing, Call                Succeeded           
+442073205650                             9 Jan 2015 15:59              0:01:45             Outgoing, Call                Succeeded           
+442073205650                             9 Jan 2015 15:59              0:00:00             Outgoing, Call                Canceled            
01536410014                               9 Jan 2015 15:24              0:01:13             Outgoing, Call                Succeeded           
01142781600                               9 Jan 2015 13:13              0:08:12             Outgoing, Call                Succeeded           
Ken (07436115448)                         9 Jan 2015 12:36              0:03:32             Outgoing, Call                Succeeded           
02476555555                               9 Jan 2015 12:35              0:00:03             Outgoing, Call                Succeeded           
02476674206                               9 Jan 2015 12:35              0:00:15             Outgoing, Call                Succeeded           
101                                       9 Jan 2015 12:23              0:00:00             Outgoing, Call                Canceled            
101                                       9 Jan 2015 12:19              0:00:00             Outgoing, Call                Canceled            
Mark pope (+447838467571)                 9 Jan 2015 11:58              0:00:11             Outgoing, Call                Succeeded           
Mark pope (+447838467571)                 9 Jan 2015 11:57              0:00:14             Outgoing, Call                Succeeded           
Mark pope (+447838467571)                 9 Jan 2015 11:38              0:00:02             Outgoing, Call                Succeeded           
Mark pope (+447838467571)                 9 Jan 2015 11:38              0:00:03             Outgoing, Call                Succeeded           
Mark pope (+447838467571)                 9 Jan 2015 11:32              0:05:06             Outgoing, Call                Succeeded           
Mark pope (+447838467571)                 9 Jan 2015 00:14              0:00:08             Outgoing, Call                Succeeded           
Mark pope (+447838467571)                 8 Jan 2015 11:50              0:03:04             Outgoing, Call                Succeeded           
07838467571                               8 Jan 2015 11:16              0:02:01             Incoming, Call                Answered            
Julie (02477043064)                       8 Jan 2015 11:15              0:00:00             Outgoing, Call                Canceled            
Mark pope (+447838467571)                 8 Jan 2015 11:14              0:00:03             Outgoing, Call                Succeeded           
Julie (02477043064)                       8 Jan 2015 11:07              0:00:00             Outgoing, Call                Canceled            
Mark pope (+447838467571)                 8 Jan 2015 11:07              0:00:06             Outgoing, Call                Succeeded           
Mark pope (+447838467571)                 8 Jan 2015 10:05              0:01:35             Outgoing, Call                Succeeded           
02476673717                               8 Jan 2015 09:38              0:06:11             Outgoing, Call                Succeeded           
02476673717                               8 Jan 2015 09:34              0:00:00             Incoming, Call                Missed              
Mark pope (+447838467571)                 8 Jan 2015 09:29              0:01:33             Outgoing, Call                Succeeded           
07531014076                               8 Jan 2015 08:39              0:11:17             Incoming, Call                Answered            
Mark pope (+447838467571)                 7 Jan 2015 19:42              0:00:00             Outgoing, Call                Canceled            
07821375966                               7 Jan 2015 19:37              0:01:58             Incoming, Call                Answered            
02476222522                               7 Jan 2015 19:08              0:00:00             Outgoing, Call                Canceled            
07838467571                               7 Jan 2015 18:07              0:00:00             Incoming, Call                Missed              
Unknown                                   7 Jan 2015 17:48              0:09:14             Incoming, Call                Answered            
Unknown                                   7 Jan 2015 17:39              0:08:08             Incoming, Call                Answered            
Unknown                                   6 Jan 2015 19:33              0:00:00             Incoming, Call                Missed              
+447782333123                             6 Jan 2015 17:16              0:01:01             Outgoing, Call                Succeeded           
Unknown                                   6 Jan 2015 17:15              0:00:00             Incoming, Call                Missed              
Mark pope (+447838467571)                 6 Jan 2015 15:54              0:03:53             Outgoing, Call                Succeeded           
07837254938                               6 Jan 2015 15:16              0:00:02             Outgoing, Call                Succeeded           
Mark pope (+447838467571)                 6 Jan 2015 14:51              0:00:31             Outgoing, Call                Succeeded           
Mark pope (+447838467571)                 6 Jan 2015 14:45              0:05:45             Outgoing, Call                Succeeded           
Julie (02477043064)                       6 Jan 2015 12:55              0:01:37             Outgoing, Call                Succeeded           
Mark pope (+447838467571)                 6 Jan 2015 12:55              0:00:00             Outgoing, Call                Canceled            
Mark pope (+447838467571)                 6 Jan 2015 10:46              0:00:00             Outgoing, Call                Canceled            
Mark pope (+447838467571)                 6 Jan 2015 10:44              0:00:00             Outgoing, Call                Canceled            
Julie (02477043064)                       6 Jan 2015 10:43              0:00:00             Outgoing, Call                Canceled            
Mark pope (+447838467571)                 6 Jan 2015 10:42              0:00:00             Outgoing, Call                Canceled            
Julie (02477043064)                       6 Jan 2015 10:41              0:00:00             Outgoing, Call                Canceled            
02476674206                               6 Jan 2015 10:15              0:00:44             Incoming, Call                Answered            
02476674206                               6 Jan 2015 08:51              0:01:37             Incoming, Call                Answered            
07808285786                               6 Jan 2015 08:41              0:00:57             Incoming, Call                Answered            
02476555555                               6 Jan 2015 08:35              0:00:53             Outgoing, Call                Succeeded           
02476555555                               5 Jan 2015 18:00              0:00:40             Outgoing, Call                Succeeded           
Ken (07436115448)                         5 Jan 2015 17:07              0:00:00             Incoming, Call                Missed              
02476831212                               5 Jan 2015 16:32              0:01:16             Outgoing, Call                Succeeded           
07976438827                               5 Jan 2015 16:03              0:01:00             Outgoing, Call                Succeeded           
101                                       5 Jan 2015 12:05              0:06:34             Outgoing, Call                Succeeded           
101                                       5 Jan 2015 12:05              0:00:09             Outgoing, Call                Succeeded           
101                                       5 Jan 2015 12:04              0:00:06             Outgoing, Call                Succeeded           
01142781600                               5 Jan 2015 11:27              0:18:42             Outgoing, Call                Succeeded           
01212121828                               5 Jan 2015 11:23              0:00:19             Outgoing, Call                Succeeded           
101                                       5 Jan 2015 11:07              0:14:10             Outgoing, Call                Succeeded           
11                                        5 Jan 2015 11:07              0:00:00             Outgoing, Call                Canceled            
901                                       5 Jan 2015 11:07              0:00:00             Outgoing, Call                Canceled            
911                                       5 Jan 2015 11:06              0:00:23             Outgoing, Call                Succeeded           
07706722524                               4 Jan 2015 18:50              0:00:19             Incoming, Call                Answered            
07706722524                               4 Jan 2015 18:49              0:00:16             Incoming, Call                Answered            
01273675529                               1 Jan 2015 16:30              0:00:14             Outgoing, Call                Succeeded           
01273675529                               1 Jan 2015 13:40              0:01:09             Outgoing, Call                Succeeded           
01273675529                               1 Jan 2015 13:39              0:00:00             Outgoing, Call                Canceled            
01273675529                               1 Jan 2015 13:36              0:00:00             Incoming, Call                Missed              
Julie (02477043064)                       31 Dec 2014 13:28             0:00:19             Outgoing, Call                Succeeded           
Julie (02477043064)                       31 Dec 2014 13:28             0:00:12             Outgoing, Call                Succeeded           
Julie (02477043064)                       31 Dec 2014 13:27             0:00:12             Outgoing, Call                Succeeded           
mum (01419599627)                         31 Dec 2014 10:57             0:00:55             Outgoing, Call                Succeeded           
07804691041                               30 Dec 2014 21:05             0:00:00             Incoming, Call                Missed              
07804691041                               30 Dec 2014 21:02             0:00:00             Incoming, Call                Missed              
07804691041                               30 Dec 2014 21:02             0:00:00             Incoming, Call                Missed              
02476501555                               30 Dec 2014 20:29             0:02:10             Outgoing, Call                Succeeded           
Julie (02477043064)                       30 Dec 2014 17:45             0:00:16             Outgoing, Call                Succeeded           
Julie (02477043064)                       30 Dec 2014 17:38             0:00:17             Outgoing, Call                Succeeded           
Julie (02477043064)                       30 Dec 2014 16:20             0:00:18             Outgoing, Call                Succeeded           
Mark pope (+447838467571)                 30 Dec 2014 16:20             0:00:00             Outgoing, Call                Canceled            
Julie (02477043064)                       30 Dec 2014 16:20             0:00:11             Outgoing, Call                Succeeded           
mum (01419599627)                         29 Dec 2014 19:51             0:03:28             Outgoing, Call                Succeeded           
mum (01419599627)                         29 Dec 2014 19:50             0:00:33             Outgoing, Call                Succeeded           
mum (01419599627)                         29 Dec 2014 19:47             0:02:28             Outgoing, Call                Succeeded           
Julie (02477043064)                       29 Dec 2014 16:59             0:00:00             Outgoing, Call                Canceled            
Mark pope (+447838467571)                 29 Dec 2014 16:58             0:00:00             Outgoing, Call                Canceled            
Mark pope (+447838467571)                 29 Dec 2014 16:44             0:00:17             Outgoing, Call                Succeeded           
08000232588                               29 Dec 2014 10:53             0:00:03             Incoming, Call                Answered            
01412432640                               27 Dec 2014 19:25             0:00:00             Incoming, Call                Missed              
Mark pope (+447838467571)                 27 Dec 2014 16:49             0:00:17             Outgoing, Call                Succeeded           
Mark pope (+447838467571)                 27 Dec 2014 16:47             0:00:11             Outgoing, Call                Succeeded           
Mark pope (+447838467571)                 27 Dec 2014 12:09             0:00:40             Outgoing, Call                Succeeded           
Mark pope (+447838467571)                 26 Dec 2014 16:03             0:00:45             Outgoing, Call                Succeeded           
01413310066                               26 Dec 2014 13:48             0:00:00             Outgoing, Call                Canceled            
Mark pope (+447838467571)                 25 Dec 2014 19:46             0:00:11             Outgoing, Call                Succeeded           
01419593900                               25 Dec 2014 16:45             0:01:07             Outgoing, Call                Succeeded           
01413397333                               25 Dec 2014 16:43             0:00:00             Outgoing, Call                Canceled            
Mark pope (+447838467571)                 25 Dec 2014 14:31             0:02:53             Outgoing, Call                Succeeded           
01413577357                               24 Dec 2014 13:01             0:03:51             Incoming, Call                Answered            
01413393235                               24 Dec 2014 12:03             0:00:09             Outgoing, Call                Succeeded           
01413393235                               24 Dec 2014 12:03             0:00:00             Outgoing, Call                Canceled            
01142744150                               24 Dec 2014 11:18             0:04:00             Incoming, Call                Answered            
07838467571                               24 Dec 2014 11:13             0:01:33             Incoming, Call                Answered            
07838467571                               24 Dec 2014 11:12             0:00:05             Outgoing, Call                Succeeded           
01413577357                               24 Dec 2014 11:11             0:00:33             Outgoing, Call                Succeeded           
01413393235                               24 Dec 2014 11:05             0:00:00             Outgoing, Call                Canceled            
01413393235                               24 Dec 2014 11:05             0:00:00             Outgoing, Call                Canceled            
01413393235                               24 Dec 2014 11:04             0:00:00             Outgoing, Call                Canceled            
01413393235                               24 Dec 2014 11:04             0:00:00             Outgoing, Call                Canceled            
01413393235                               24 Dec 2014 11:04             0:00:00             Outgoing, Call                Canceled            
01413393235                               24 Dec 2014 11:04             0:00:00             Outgoing, Call                Canceled            
07838467571                               24 Dec 2014 11:03             0:00:26             Incoming, Call                Answered            
01413577357                               24 Dec 2014 11:03             0:00:11             Outgoing, Call                Succeeded           
Jamie Plumber (07947431316)               24 Dec 2014 09:28             0:01:04             Incoming, Call                Answered            
Mark pope (+447838467571)                 23 Dec 2014 11:52             0:00:16             Outgoing, Call                Succeeded           
03301241929                               23 Dec 2014 10:12             0:00:00             Outgoing, Call                Canceled            
03301241929                               23 Dec 2014 10:11             0:00:00             Outgoing, Call                Canceled            
Mark pope (+447838467571)                 22 Dec 2014 15:46             0:02:18             Outgoing, Call                Succeeded           
01413347777                               22 Dec 2014 11:53             0:01:01             Outgoing, Call                Succeeded           
Mark pope (+447838467571)                 22 Dec 2014 11:48             0:03:57             Outgoing, Call                Succeeded           
Mark pope (+447838467571)                 22 Dec 2014 10:28             0:00:55             Outgoing, Call                Succeeded           
Julie (02477043064)                       22 Dec 2014 10:28             0:00:00             Outgoing, Call                Canceled            
Julie (02477043064)                       22 Dec 2014 10:27             0:00:00             Outgoing, Call                Canceled            
Mark pope (+447838467571)                 21 Dec 2014 21:17             0:00:00             Outgoing, Call                Canceled            
Julie (02477043064)                       21 Dec 2014 21:17             0:00:00             Outgoing, Call                Canceled            
Julie (02477043064)                       21 Dec 2014 21:17             0:00:00             Outgoing, Call                Canceled            
Julie (02477043064)                       21 Dec 2014 21:16             0:00:00             Outgoing, Call                Canceled            
Mark pope (+447838467571)                 21 Dec 2014 21:16             0:00:00             Outgoing, Call                Canceled            
07973412817                               21 Dec 2014 15:48             0:00:00             Incoming, Call                Missed              
01142744150                               21 Dec 2014 12:41             0:02:23             Incoming, Call                Answered            
03301241040                               21 Dec 2014 11:57             0:04:42             Outgoing, Call                Succeeded           
+447782333123                             19 Dec 2014 22:39             0:00:00             Outgoing, Call                Canceled            
02476832222                               19 Dec 2014 20:26             0:02:18             Outgoing, Call                Succeeded           
101                                       19 Dec 2014 20:12             0:04:11             Outgoing, Call                Succeeded           
02476834333                               19 Dec 2014 12:59             0:22:01             Outgoing, Call                Succeeded           
0500834333                                19 Dec 2014 12:59             0:00:00             Outgoing, Call                Canceled            
0247683201109                             19 Dec 2014 12:54             0:00:00             Outgoing, Call                Canceled            
0500834333                                19 Dec 2014 12:53             0:00:00             Outgoing, Call                Canceled            
08000232588                               18 Dec 2014 18:42             0:00:00             Incoming, Call                Missed              
01942614100                               18 Dec 2014 17:44             0:00:00             Incoming, Call                Missed              
Julie (02477043064)                       18 Dec 2014 16:57             0:00:29             Outgoing, Call                Succeeded           
Julie (02477043064)                       18 Dec 2014 16:56             0:00:16             Outgoing, Call                Succeeded           
Mark pope (+447838467571)                 18 Dec 2014 16:56             0:00:02             Outgoing, Call                Succeeded           
Unknown                                   18 Dec 2014 16:55             0:00:13             Incoming, Call                Answered            
Mark pope (+447838467571)                 18 Dec 2014 16:55             0:00:03             Outgoing, Call                Succeeded           
Mark pope (+447838467571)                 18 Dec 2014 14:54             0:01:39             Outgoing, Call                Succeeded           
01418491425                               18 Dec 2014 14:52             0:01:12             Incoming, Call                Answered            
01418491425                               18 Dec 2014 12:46             0:01:26             Outgoing, Call                Succeeded           
01418491425                               18 Dec 2014 12:46             0:00:00             Outgoing, Call                Canceled            
01413346444                               18 Dec 2014 12:44             0:01:14             Outgoing, Call                Succeeded           
01413346444                               18 Dec 2014 12:43             0:00:13             Outgoing, Call                Succeeded           
01413346444                               18 Dec 2014 12:39             0:00:30             Outgoing, Call                Succeeded           
01413346444                               18 Dec 2014 12:39             0:00:00             Outgoing, Call                Canceled            
Julie (02477043064)                       17 Dec 2014 11:33             0:00:24             Outgoing, Call                Succeeded           
Simon Voice (07774626249)                 17 Dec 2014 09:13             0:00:00             Incoming, Call                Missed              
01253362048                               16 Dec 2014 16:05             0:03:03             Outgoing, Call                Succeeded           
01253362048                               16 Dec 2014 16:05             0:00:00             Outgoing, Call                Canceled            
03301241058                               16 Dec 2014 08:54             0:08:11             Outgoing, Call                Succeeded           
03301241896                               16 Dec 2014 08:06             0:00:26             Outgoing, Call                Succeeded           
01253362048                               15 Dec 2014 15:39             0:02:33             Outgoing, Call                Succeeded           
08000232588                               15 Dec 2014 13:39             0:00:00             Incoming, Call                Missed              
0034951709011                             15 Dec 2014 12:51             0:00:59             Incoming, Call                Answered            
03301241040                               15 Dec 2014 10:28             0:00:23             Outgoing, Call                Succeeded           
mum (01419599627)                         14 Dec 2014 18:56             0:10:59             Outgoing, Call                Succeeded           
07838467571                               14 Dec 2014 12:35             0:00:23             Incoming, Call                Answered            
Julie (02477043064)                       13 Dec 2014 19:28             0:00:00             Outgoing, Call                Canceled            
Julie (02477043064)                       13 Dec 2014 19:27             0:00:00             Outgoing, Call                Canceled            
Unknown                                   13 Dec 2014 19:26             0:00:00             Incoming, Call                Missed              
02476677195                               13 Dec 2014 19:22             0:01:15             Outgoing, Call                Succeeded           
02476677195                               13 Dec 2014 19:22             0:00:00             Outgoing, Call                Canceled            
02476250500                               13 Dec 2014 17:43             0:02:26             Incoming, Call                Answered            
02476250500                               13 Dec 2014 16:37             0:01:35             Outgoing, Call                Succeeded           
03331005000                               13 Dec 2014 12:04             0:00:00             Outgoing, Call                Canceled            
03301241021                               13 Dec 2014 12:01             0:29:28             Outgoing, Call                Succeeded           
03301241021                               13 Dec 2014 11:51             0:02:43             Outgoing, Call                Succeeded           
mum (01419599627)                         12 Dec 2014 18:31             0:13:43             Outgoing, Call                Succeeded           
mum (07594383026)                         12 Dec 2014 18:30             0:00:00             Outgoing, Call                Canceled            
03331005000                               12 Dec 2014 14:08             0:00:00             Incoming, Call                Missed              
Clare Mckitrick (07912161057)             12 Dec 2014 12:46             0:07:37             Incoming, Call                Answered            
Mark pope (+447838467571)                 12 Dec 2014 09:08             0:00:11             Outgoing, Call                Succeeded           
Shaun Smith (07817713479)                 12 Dec 2014 09:08             0:00:00             Outgoing, Call                Canceled            
Mark pope (+447838467571)                 12 Dec 2014 09:08             0:00:00             Outgoing, Call                Canceled            
Mark pope (+447838467571)                 11 Dec 2014 12:17             0:00:20             Outgoing, Call                Succeeded           
+442476222522                             11 Dec 2014 08:24             0:00:00             Outgoing, Call                Canceled            
mum (01419599627)                         10 Dec 2014 17:52             0:18:37             Outgoing, Call                Succeeded           
01413577357                               10 Dec 2014 17:42             0:00:00             Incoming, Call                Missed              
Unknown                                   10 Dec 2014 16:36             0:25:39             Incoming, Call                Answered            
Mark pope (+447838467571)                 10 Dec 2014 15:41             0:00:00             Outgoing, Call                Canceled            
Unknown                                   10 Dec 2014 14:29             0:00:00             Incoming, Call                Missed              
Mark pope (+447838467571)                 10 Dec 2014 12:43             0:03:39             Outgoing, Call                Succeeded           
Ash (07810707879)                         10 Dec 2014 11:42             0:13:35             Incoming, Call                Answered            
Mark pope (+447838467571)                 9 Dec 2014 16:05              0:04:20             Outgoing, Call                Succeeded           
02476834025                               9 Dec 2014 15:43              0:11:14             Outgoing, Call                Succeeded           
02476223284                               9 Dec 2014 15:41              0:00:23             Outgoing, Call                Succeeded           
Mark pope (+447838467571)                 9 Dec 2014 15:37              0:03:03             Outgoing, Call                Succeeded           
Mark pope (+447838467571)                 9 Dec 2014 15:30              0:00:00             Outgoing, Call                Canceled            
Mark pope (+447838467571)                 9 Dec 2014 15:29              0:00:03             Outgoing, Call                Succeeded           
Mark pope (+447838467571)                 9 Dec 2014 15:29              0:00:03             Outgoing, Call                Succeeded           
Ash (07810707879)                         9 Dec 2014 15:02              0:00:00             Incoming, Call                Missed              
Ash (07810707879)                         9 Dec 2014 15:01              0:00:14             Incoming, Call                Answered            
Mark pope (+447838467571)                 9 Dec 2014 12:24              0:10:02             Outgoing, Call                Succeeded           
Mark pope (+447838467571)                 9 Dec 2014 12:23              0:00:00             Outgoing, Call                Canceled            
07838467571                               9 Dec 2014 11:02              0:00:00             Incoming, Call                Missed              
07838467571                               9 Dec 2014 10:57              0:08:01             Incoming, Call                Answered            
Mark pope (+447838467571)                 9 Dec 2014 10:53              0:00:00             Outgoing, Call                Canceled            
Mark pope (+447838467571)                 9 Dec 2014 10:53              0:00:03             Outgoing, Call                Succeeded           
Mark pope (+447838467571)                 8 Dec 2014 13:39              0:00:00             Outgoing, Call                Canceled            
Mark pope (+447838467571)                 8 Dec 2014 13:13              0:05:12             Outgoing, Call                Succeeded           
Mark pope (+447838467571)                 8 Dec 2014 12:21              0:00:00             Outgoing, Call                Canceled            
Mark pope (+447838467571)                 8 Dec 2014 12:18              0:00:02             Outgoing, Call                Succeeded           
02476677195                               7 Dec 2014 18:32              0:01:03             Outgoing, Call                Succeeded           
02476677195                               7 Dec 2014 18:32              0:00:00             Outgoing, Call                Canceled            
02476677195                               7 Dec 2014 18:31              0:00:00             Outgoing, Call                Canceled            
03301241055                               7 Dec 2014 10:22              0:05:23             Outgoing, Call                Succeeded           
03301241016                               7 Dec 2014 10:06              0:01:03             Outgoing, Call                Succeeded           
03301241016                               7 Dec 2014 10:00              0:04:59             Outgoing, Call                Succeeded           
07838467571                               7 Dec 2014 08:32              0:00:06             Incoming, Call                Answered            
03301241860                               7 Dec 2014 08:25              0:01:18             Outgoing, Call                Succeeded           
mum (01419599627)                         6 Dec 2014 20:24              0:10:01             Outgoing, Call                Succeeded           
07838467571                               5 Dec 2014 17:13              0:00:09             Incoming, Call                Answered            
08452138900                               5 Dec 2014 13:17              0:00:28             Incoming, Call                Answered            
03301241920                               5 Dec 2014 11:50              0:08:52             Outgoing, Call                Succeeded           
02030596525                               5 Dec 2014 00:15              0:02:50             Outgoing, Call                Succeeded           
02476222022                               4 Dec 2014 12:43              0:07:10             Outgoing, Call                Succeeded           
07718220673                               4 Dec 2014 08:23              0:00:24             Incoming, Call                Answered            
03333003313                               3 Dec 2014 16:54              0:06:58             Incoming, Call                Answered            
Three (333)                               3 Dec 2014 16:28              0:17:37             Outgoing, Call                Succeeded           
02476258738                               3 Dec 2014 16:18              0:00:00             Outgoing, Call                Canceled            
Mark pope (+447838467571)                 3 Dec 2014 08:57              0:00:03             Outgoing, Call                Succeeded           
Mark pope (+447838467571)                 3 Dec 2014 08:48              0:00:04             Outgoing, Call                Succeeded           
02476222022                               3 Dec 2014 08:46              0:01:03             Outgoing, Call                Succeeded           
mum (01419599627)                         2 Dec 2014 20:25              0:05:17             Outgoing, Call                Succeeded           
Clare Mckitrick (07912161057)             2 Dec 2014 17:30              0:01:15             Incoming, Call                Answered            
Mark pope (+447838467571)                 2 Dec 2014 16:59              0:00:15             Outgoing, Call                Succeeded           
01414357765                               2 Dec 2014 14:51              0:00:00             Incoming, Call                Missed              
Mark pope (+447838467571)                 2 Dec 2014 13:42              0:00:29             Outgoing, Call                Succeeded           
Simon Voice (07774626249)                 2 Dec 2014 11:36              0:21:53             Outgoing, Call                Succeeded           
07718858728                               2 Dec 2014 11:16              0:00:11             Incoming, Call                Answered            
07718858728                               2 Dec 2014 10:40              0:00:00             Incoming, Call                Missed              
07838467571                               2 Dec 2014 08:04              0:02:09             Incoming, Call                Answered            
Mark pope (+447838467571)                 2 Dec 2014 08:04              0:00:06             Outgoing, Call                Succeeded           
03301241863                               2 Dec 2014 08:00              0:03:16             Outgoing, Call                Succeeded           
03001240033                               2 Dec 2014 07:50              0:00:50             Outgoing, Call                Succeeded           
Mark pope (+447838467571)                 2 Dec 2014 06:46              0:00:44             Outgoing, Call                Succeeded           
07887389596                               1 Dec 2014 20:38              0:00:08             Incoming, Call                Answered            
Mark pope (+447838467571)                 1 Dec 2014 12:04              0:00:07             Outgoing, Call                Succeeded           
Simon Voice (07774626249)                 1 Dec 2014 10:35              0:00:00             Incoming, Call                Missed              
Mark pope (+447838467571)                 1 Dec 2014 10:32              0:00:12             Outgoing, Call                Succeeded           
Mark pope (+447838467571)                 1 Dec 2014 08:41              0:00:01             Outgoing, Call                Succeeded           
Mark pope (+447838467571)                 1 Dec 2014 08:41              0:00:04             Outgoing, Call                Succeeded           
Mark pope (+447838467571)                 30 Nov 2014 17:37             0:00:04             Outgoing, Call                Succeeded           
02476222022                               29 Nov 2014 13:10             0:00:57             Incoming, Call                Answered            
03301240232                               29 Nov 2014 12:10             0:08:45             Outgoing, Call                Succeeded           
03301240232                               29 Nov 2014 12:04             0:01:15             Outgoing, Call                Succeeded           
07718920212                               29 Nov 2014 10:48             0:00:43             Incoming, Call                Answered            
mum (01419599627)                         29 Nov 2014 10:22             0:01:39             Outgoing, Call                Succeeded           
08000512592                               29 Nov 2014 09:06             0:15:45             Incoming, Call                Answered            
01413575677                               28 Nov 2014 22:24             0:00:29             Outgoing, Call                Succeeded           
07450988703                               28 Nov 2014 19:19             0:00:00             Incoming, Call                Missed              
07450988703                               28 Nov 2014 15:52             0:00:00             Incoming, Call                Missed              
02476222022                               28 Nov 2014 14:38             0:00:41             Incoming, Call                Answered            
07718920212                               28 Nov 2014 13:37             0:00:00             Outgoing, Call                Canceled            
mum (07594383026)                         27 Nov 2014 20:55             0:06:42             Outgoing, Call                Succeeded           
mum (01419599627)                         27 Nov 2014 20:24             0:00:18             Outgoing, Call                Succeeded           
02030056000                               27 Nov 2014 17:44             0:00:00             Incoming, Call                Missed              
Unknown                                   27 Nov 2014 13:30             0:00:57             Incoming, Call                Answered            
03456402020                               27 Nov 2014 12:31             0:15:12             Outgoing, Call                Succeeded           
Mark pope (+447838467571)                 27 Nov 2014 12:30             0:01:41             Outgoing, Call                Succeeded           
01785710253                               27 Nov 2014 12:29             0:00:00             Outgoing, Call                Canceled            
01785710253                               27 Nov 2014 12:28             0:00:00             Outgoing, Call                Canceled            
03456402020                               27 Nov 2014 12:26             0:02:32             Outgoing, Call                Succeeded           
03456402020                               27 Nov 2014 09:52             0:08:42             Outgoing, Call                Succeeded           
Mark pope (+447838467571)                 27 Nov 2014 09:50             0:01:32             Outgoing, Call                Succeeded           
07880176684                               26 Nov 2014 15:51             0:00:07             Outgoing, Call                Succeeded           
07880176684                               26 Nov 2014 14:12             0:00:00             Incoming, Call                Missed              
Mark pope (+447838467571)                 26 Nov 2014 12:24             0:01:02             Outgoing, Call                Succeeded           
08003584486                               26 Nov 2014 11:20             0:00:00             Incoming, Call                Missed              
07801625280                               26 Nov 2014 10:46             0:00:00             Incoming, Call                Missed              
Mark pope (+447838467571)                 26 Nov 2014 09:43             0:04:03             Outgoing, Call                Succeeded           
07838467571                               26 Nov 2014 08:15             0:00:00             Incoming, Call                Missed              
Abel And cole (02075363460)               25 Nov 2014 20:24             0:00:04             Outgoing, Call                Succeeded           
mum (01419599627)                         25 Nov 2014 20:22             0:08:57             Outgoing, Call                Succeeded           
07760837070                               25 Nov 2014 19:34             0:00:08             Incoming, Call                Answered            
02476220099                               25 Nov 2014 19:34             0:00:30             Outgoing, Call                Succeeded           
Mark pope (+447838467571)                 25 Nov 2014 17:28             0:00:21             Outgoing, Call                Succeeded           
Clare Mckitrick (07912161057)             25 Nov 2014 17:28             0:00:00             Outgoing, Call                Canceled            
Clare Mckitrick (07912161057)             25 Nov 2014 16:31             0:00:16             Outgoing, Call                Succeeded           
Clare Mckitrick (07912161057)             25 Nov 2014 16:10             0:00:00             Incoming, Call                Missed              
Mark pope (+447838467571)                 25 Nov 2014 12:04             0:00:12             Outgoing, Call                Succeeded           
Mark pope (+447838467571)                 24 Nov 2014 10:55             0:01:14             Outgoing, Call                Succeeded           
03332022222                               23 Nov 2014 15:33             0:03:58             Outgoing, Call                Succeeded           
01412876688                               23 Nov 2014 09:25             0:02:45             Outgoing, Call                Succeeded           
Mark pope (+447838467571)                 22 Nov 2014 14:00             0:00:37             Outgoing, Call                Succeeded           
Mark pope (+447838467571)                 22 Nov 2014 13:27             0:00:23             Outgoing, Call                Succeeded           
02476250500                               22 Nov 2014 10:27             0:02:44             Outgoing, Call                Succeeded           
mum (01419599627)                         21 Nov 2014 17:20             0:07:33             Outgoing, Call                Succeeded           
Tim  Clayton (07789087341)                21 Nov 2014 12:10             0:00:00             Incoming, Call                Missed              
01413347777                               21 Nov 2014 12:02             0:01:03             Outgoing, Call                Succeeded           
02476222022                               21 Nov 2014 11:42             0:00:00             Incoming, Call                Missed              
01635879921                               21 Nov 2014 11:31             0:03:50             Outgoing, Call                Succeeded           
03333321800                               21 Nov 2014 11:09             0:01:56             Outgoing, Call                Succeeded           
03333321800                               21 Nov 2014 11:00             0:00:00             Incoming, Call                Missed              
03333321800                               20 Nov 2014 15:55             0:00:00             Incoming, Call                Missed              
Thatcham Marketing (01635874646)          20 Nov 2014 14:23             0:00:00             Incoming, Call                Missed              
Mark pope (+447838467571)                 20 Nov 2014 13:50             0:03:54             Outgoing, Call                Succeeded           
01413577357                               20 Nov 2014 10:03             0:00:28             Outgoing, Call                Succeeded           
01413577357                               20 Nov 2014 09:40             0:00:00             Incoming, Call                Missed              
01413577357                               20 Nov 2014 09:13             0:00:33             Outgoing, Call                Succeeded           
Mark pope (+447838467571)                 20 Nov 2014 07:22             0:00:56             Outgoing, Call                Succeeded           
Mark pope (+447838467571)                 19 Nov 2014 21:01             0:07:19             Outgoing, Call                Succeeded           
Mark pope (+447838467571)                 19 Nov 2014 19:40             0:03:31             Outgoing, Call                Succeeded           
Mark pope (+447838467571)                 19 Nov 2014 18:15             0:06:34             Outgoing, Call                Succeeded           
Mark pope (+447838467571)                 19 Nov 2014 18:00             0:05:33             Outgoing, Call                Succeeded           
07880239801                               19 Nov 2014 16:39             0:00:00             Incoming, Call                Missed              
03300883774                               19 Nov 2014 14:16             0:03:02             Outgoing, Call                Succeeded           
03333321800                               19 Nov 2014 13:51             0:00:00             Incoming, Call                Missed              
Mark pope (+447838467571)                 19 Nov 2014 12:24             0:03:16             Outgoing, Call                Succeeded           
Mark pope (+447838467571)                 19 Nov 2014 12:23             0:00:00             Outgoing, Call                Canceled            
02476222022                               19 Nov 2014 11:05             0:04:17             Outgoing, Call                Succeeded           
02476222022                               19 Nov 2014 10:38             0:00:00             Incoming, Call                Missed              
02476222022                               19 Nov 2014 09:09             0:01:33             Outgoing, Call                Succeeded           
07903843529                               19 Nov 2014 08:53             0:00:00             Incoming, Call                Missed              
Mark pope (+447838467571)                 19 Nov 2014 07:32             0:01:05             Outgoing, Call                Succeeded           
mum (01419599627)                         18 Nov 2014 20:59             0:02:28             Outgoing, Call                Succeeded           
mum (01419599627)                         18 Nov 2014 20:40             0:14:38             Outgoing, Call                Succeeded           
Mark pope (+447838467571)                 18 Nov 2014 20:34             0:05:37             Outgoing, Call                Succeeded           
Mark pope (+447838467571)                 18 Nov 2014 19:25             0:04:54             Outgoing, Call                Succeeded           
07838467571                               18 Nov 2014 17:36             0:04:43             Incoming, Call                Answered            
Mark pope (+447838467571)                 18 Nov 2014 17:35             0:00:03             Outgoing, Call                Succeeded           
02476222022                               18 Nov 2014 17:25             0:01:05             Outgoing, Call                Succeeded           
07786178082                               18 Nov 2014 15:40             0:00:00             Incoming, Call                Missed              
07786178082                               18 Nov 2014 13:51             0:00:00             Incoming, Call                Missed              
02074444082                               18 Nov 2014 13:42             0:10:03             Incoming, Call                Answered            
07813879573                               18 Nov 2014 13:42             0:00:00             Outgoing, Call                Canceled            
Chris Abass (+447786178082)               18 Nov 2014 13:41             0:00:00             Outgoing, Call                Canceled            
07813879573                               18 Nov 2014 13:38             0:03:09             Outgoing, Call                Succeeded           
02074444082                               18 Nov 2014 13:36             0:00:00             Incoming, Call                Missed              
Mark pope (+447838467571)                 18 Nov 2014 13:30             0:00:00             Outgoing, Call                Canceled            
Mark pope (+447838467571)                 18 Nov 2014 13:28             0:01:56             Outgoing, Call                Succeeded           
Clare Mckitrick (07912161057)             18 Nov 2014 11:04             0:00:00             Incoming, Call                Missed              
Mark pope (+447838467571)                 18 Nov 2014 08:58             0:01:23             Outgoing, Call                Succeeded           
07838467571                               18 Nov 2014 07:22             0:01:10             Incoming, Call                Answered            
Mark pope (+447838467571)                 18 Nov 2014 07:21             0:00:00             Outgoing, Call                Canceled            
Mark pope (+447838467571)                 17 Nov 2014 20:47             0:07:14             Outgoing, Call                Succeeded           
Mark pope (+447838467571)                 17 Nov 2014 18:39             0:09:01             Outgoing, Call                Succeeded           
Mark pope (+447838467571)                 17 Nov 2014 18:39             0:00:00             Outgoing, Call                Canceled            
+447782333123                             17 Nov 2014 18:22             0:00:47             Outgoing, Call                Succeeded           
+447782333123                             17 Nov 2014 18:20             0:01:11             Outgoing, Call                Succeeded           
+447782333123                             17 Nov 2014 18:19             0:00:52             Outgoing, Call                Succeeded           
02074444082                               17 Nov 2014 16:48             0:00:00             Incoming, Call                Missed              
Mark pope (+447838467571)                 17 Nov 2014 16:08             0:05:38             Outgoing, Call                Succeeded           
07838467571                               17 Nov 2014 16:08             0:00:00             Incoming, Call                Missed              
02476999999                               17 Nov 2014 15:18             0:00:00             Outgoing, Call                Canceled            
Contact (02070680765)                     17 Nov 2014 14:43             0:00:00             Incoming, Call                Missed              
Mark pope (+447838467571)                 17 Nov 2014 11:38             0:03:15             Outgoing, Call                Succeeded           
Mark pope (+447838467571)                 17 Nov 2014 05:11             0:00:05             Outgoing, Call                Succeeded           
Mark pope (+447838467571)                 17 Nov 2014 05:10             0:00:00             Outgoing, Call                Canceled            
Mark pope (+447838467571)                 17 Nov 2014 05:10             0:00:00             Outgoing, Call                Canceled            
Mark pope (+447838467571)                 16 Nov 2014 15:12             0:00:31             Outgoing, Call                Succeeded           
Mark pope (+447838467571)                 16 Nov 2014 13:42             0:00:19             Outgoing, Call                Succeeded           
Mark pope (+447838467571)                 15 Nov 2014 17:14             0:00:29             Outgoing, Call                Succeeded           
Mark pope (+447838467571)                 15 Nov 2014 14:53             0:00:51             Outgoing, Call                Succeeded           
mum (01419599627)                         15 Nov 2014 11:21             0:01:24             Outgoing, Call                Succeeded           
07838467571                               14 Nov 2014 13:30             0:00:17             Outgoing, Call                Succeeded           
07838467571                               14 Nov 2014 13:29             0:00:00             Incoming, Call                Missed              
07710511342                               14 Nov 2014 12:40             0:00:00             Outgoing, Call                Canceled            
07710511342                               14 Nov 2014 12:34             0:00:14             Incoming, Call                Answered            
Mark pope (+447838467571)                 13 Nov 2014 21:24             0:00:07             Outgoing, Call                Succeeded           
Mark pope (+447838467571)                 13 Nov 2014 09:47             0:01:19             Outgoing, Call                Succeeded           
07838467571                               13 Nov 2014 09:33             0:00:00             Incoming, Call                Missed              
0800 Buster (01183520800)                 13 Nov 2014 09:31             0:15:08             Outgoing, Call                Succeeded           
0800 Buster (01183520800)                 13 Nov 2014 09:31             0:00:00             Outgoing, Call                Canceled            
Mark pope (+447838467571)                 13 Nov 2014 09:28             0:00:28             Outgoing, Call                Succeeded           
mum (01419599627)                         12 Nov 2014 17:50             0:02:28             Outgoing, Call                Succeeded           
001158438523                              12 Nov 2014 09:02             0:23:59             Incoming, Call                Answered            
07903843529                               12 Nov 2014 08:44             0:00:22             Incoming, Call                Answered            
07903843529                               11 Nov 2014 17:08             0:11:26             Outgoing, Call                Succeeded           
07903843529                               11 Nov 2014 17:07             0:00:00             Incoming, Call                Missed              
Kris Asvadi (07581191221)                 11 Nov 2014 13:53             0:00:00             Incoming, Call                Missed              
07903843529                               10 Nov 2014 15:12             0:01:13             Incoming, Call                Answered            
07903843529                               10 Nov 2014 13:45             0:00:00             Incoming, Call                Missed              
07903843529                               10 Nov 2014 12:37             0:00:00             Incoming, Call                Missed              
07903843529                               10 Nov 2014 12:25             0:00:25             Outgoing, Call                Succeeded           
07903843529                               10 Nov 2014 11:34             0:00:10             Incoming, Call                Answered            
+442079341234                             9 Nov 2014 14:24              0:00:07             Outgoing, Call                Succeeded           
01413373379                               8 Nov 2014 18:35              0:01:09             Outgoing, Call                Succeeded           
Mark pope (+447838467571)                 8 Nov 2014 14:12              0:01:04             Outgoing, Call                Succeeded           
07838467571                               8 Nov 2014 11:45              0:00:00             Incoming, Call                Missed              
07450988703                               8 Nov 2014 11:32              0:00:00             Incoming, Call                Missed              
01635879921                               7 Nov 2014 16:16              0:02:24             Outgoing, Call                Succeeded           
Unknown                                   7 Nov 2014 16:01              0:00:00             Incoming, Call                Missed              
02071838674                               7 Nov 2014 13:30              0:06:02             Outgoing, Call                Succeeded           
07463898809                               6 Nov 2014 15:39              0:00:06             Incoming, Call                Answered            
07463898809                               6 Nov 2014 15:27              0:11:19             Incoming, Call                Answered            
+447463898809                             6 Nov 2014 15:27              0:00:00             Outgoing, Call                Canceled            
01413310066                               6 Nov 2014 14:20              0:00:29             Outgoing, Call                Succeeded           
Unknown                                   6 Nov 2014 12:46              0:00:17             Incoming, Call                Answered            
mum (01419599627)                         5 Nov 2014 18:53              0:09:31             Outgoing, Call                Succeeded           
07463898809                               5 Nov 2014 17:04              0:00:00             Incoming, Call                Missed              
07903843529                               5 Nov 2014 16:46              0:03:27             Incoming, Call                Answered            
07838467571                               5 Nov 2014 13:56              0:00:16             Incoming, Call                Answered            
+447782333123                             4 Nov 2014 17:25              0:00:35             Outgoing, Call                Succeeded           
07841099398                               4 Nov 2014 13:49              0:02:14             Incoming, Call                Answered            
01413577357                               4 Nov 2014 13:27              0:00:33             Outgoing, Call                Succeeded           
07841099398                               4 Nov 2014 11:12              0:01:45             Incoming, Call                Answered            
07841099398                               4 Nov 2014 10:22              0:00:43             Outgoing, Call                Succeeded           
07841099398                               4 Nov 2014 10:17              0:00:00             Outgoing, Call                Canceled            
07841099398                               4 Nov 2014 10:12              0:03:59             Incoming, Call                Answered            
07841099398                               4 Nov 2014 10:04              0:02:15             Incoming, Call                Answered            
Tony (+447595893195)                      4 Nov 2014 09:41              0:00:43             Outgoing, Call                Succeeded           
02476825661                               4 Nov 2014 09:40              0:00:00             Outgoing, Call                Canceled            
02476825661                               4 Nov 2014 09:21              0:00:00             Outgoing, Call                Canceled            
07838467571                               3 Nov 2014 10:45              0:02:35             Incoming, Call                Answered            
Mark pope (+447838467571)                 3 Nov 2014 10:43              0:00:00             Outgoing, Call                Canceled            
mum (01419599627)                         1 Nov 2014 17:44              0:02:38             Outgoing, Call                Succeeded           
Contact (02070680765)                     1 Nov 2014 14:38              0:00:00             Incoming, Call                Missed              
01413310066                               1 Nov 2014 13:09              0:00:50             Incoming, Call                Answered            
mum (01419599627)                         1 Nov 2014 12:00              0:00:03             Outgoing, Call                Succeeded           
mum (01419599627)                         1 Nov 2014 11:46              0:00:02             Outgoing, Call                Succeeded           
Mark pope (+447838467571)                 31 Oct 2014 18:25             0:00:34             Outgoing, Call                Succeeded           
01419591818                               31 Oct 2014 18:00             0:00:37             Outgoing, Call                Succeeded           
Simon Voice (07774626249)                 31 Oct 2014 15:07             0:14:31             Incoming, Call                Answered            
01413310066                               31 Oct 2014 11:57             0:02:53             Outgoing, Call                Succeeded           
mum (01419599627)                         31 Oct 2014 11:51             0:00:00             Outgoing, Call                Canceled            
mum (01419599627)                         31 Oct 2014 11:48             0:02:58             Outgoing, Call                Succeeded           
Simon Voice (07774626249)                 31 Oct 2014 11:47             0:00:35             Outgoing, Call                Succeeded           
07838467571                               31 Oct 2014 11:41             0:00:18             Incoming, Call                Answered            
Rainbow Room (01412263451)                31 Oct 2014 09:37             0:01:58             Outgoing, Call                Succeeded           
Hernel Attry (07769548061)                31 Oct 2014 08:06             0:00:00             Outgoing, Call                Canceled            
Vet (01413391228)                         30 Oct 2014 16:50             0:02:10             Outgoing, Call                Succeeded           
Mark pope (+447838467571)                 29 Oct 2014 16:23             0:01:26             Outgoing, Call                Succeeded           
02476823387                               29 Oct 2014 10:49             0:02:46             Incoming, Call                Answered            
Simon Voice (07774626249)                 29 Oct 2014 10:30             0:00:00             Incoming, Call                Missed              
mum (01419599627)                         28 Oct 2014 18:30             0:06:46             Outgoing, Call                Succeeded           
mum (01419599627)                         28 Oct 2014 12:18             0:05:51             Outgoing, Call                Succeeded           
Vet (01413391228)                         28 Oct 2014 12:08             0:07:10             Incoming, Call                Answered            
Mark pope (+447838467571)                 28 Oct 2014 10:57             0:01:20             Outgoing, Call                Succeeded           
07838467571                               27 Oct 2014 20:08             0:00:29             Incoming, Call                Answered            
+441315499012                             27 Oct 2014 18:41             0:18:13             Outgoing, Call                Succeeded           
0                                         27 Oct 2014 18:40             0:00:00             Outgoing, Call                Canceled            
03301241852                               27 Oct 2014 18:39             0:00:28             Outgoing, Call                Succeeded           
03301241852                               27 Oct 2014 18:38             0:00:00             Outgoing, Call                Canceled            
03301003000                               27 Oct 2014 17:43             0:20:34             Outgoing, Call                Succeeded           
07880239801                               27 Oct 2014 15:21             0:00:00             Incoming, Call                Missed              
mum (01419599627)                         27 Oct 2014 11:10             0:03:40             Outgoing, Call                Succeeded           
01413310066                               24 Oct 2014 14:23             0:01:44             Outgoing, Call                Succeeded           
01413577357                               24 Oct 2014 11:35             0:00:36             Outgoing, Call                Succeeded           
03301003000                               23 Oct 2014 10:52             0:26:47             Outgoing, Call                Succeeded           
01413346444                               23 Oct 2014 10:49             0:01:44             Outgoing, Call                Succeeded           
07903843529                               23 Oct 2014 09:18             0:14:27             Incoming, Call                Answered            
mum (01419599627)                         22 Oct 2014 20:15             0:17:31             Outgoing, Call                Succeeded           
03301241880                               22 Oct 2014 20:05             0:01:13             Outgoing, Call                Succeeded           
02476250500                               22 Oct 2014 14:01             0:00:34             Incoming, Call                Answered            
02476250500                               22 Oct 2014 13:57             0:00:00             Outgoing, Call                Canceled            
02476250500                               22 Oct 2014 13:57             0:00:00             Outgoing, Call                Canceled            
2476250500                                22 Oct 2014 13:56             0:00:00             Outgoing, Call                Canceled            
07838467571                               21 Oct 2014 18:19             0:00:00             Incoming, Call                Missed              
07838467571                               21 Oct 2014 18:07             0:00:00             Incoming, Call                Missed              
07838467571                               21 Oct 2014 18:03             0:00:00             Incoming, Call                Missed              
07838467571                               21 Oct 2014 18:01             0:00:00             Incoming, Call                Missed              
07838467571                               21 Oct 2014 18:00             0:00:00             Incoming, Call                Missed              
Mark pope (+447838467571)                 21 Oct 2014 17:53             0:05:48             Outgoing, Call                Succeeded           
Mark pope (+447838467571)                 21 Oct 2014 12:09             0:04:14             Outgoing, Call                Succeeded           
Mark pope (+447838467571)                 21 Oct 2014 12:09             0:00:00             Outgoing, Call                Canceled            
Mark pope (+447838467571)                 21 Oct 2014 07:35             0:01:29             Outgoing, Call                Succeeded           
Mark pope (+447838467571)                 20 Oct 2014 20:54             0:02:13             Outgoing, Call                Succeeded           
Stewart Todd (+447447906040)              20 Oct 2014 18:41             0:00:00             Outgoing, Call                Canceled            
Mark pope (+447838467571)                 20 Oct 2014 18:38             0:02:25             Outgoing, Call                Succeeded           
Mark pope (+447838467571)                 20 Oct 2014 18:14             0:02:27             Outgoing, Call                Succeeded           
Mark pope (+447838467571)                 20 Oct 2014 10:37             0:00:55             Outgoing, Call                Succeeded           
03001240010                               19 Oct 2014 17:50             0:04:17             Outgoing, Call                Succeeded           
Stewart Todd (+447447906040)              19 Oct 2014 15:32             0:00:29             Outgoing, Call                Succeeded           
Stewart Todd (+447591388364)              19 Oct 2014 15:32             0:00:00             Outgoing, Call                Canceled            
Stewart Todd (01419449744)                19 Oct 2014 15:31             0:00:00             Outgoing, Call                Canceled            
Stewart Todd (+447591388364)              19 Oct 2014 15:31             0:00:00             Outgoing, Call                Canceled            
Mark pope (+447838467571)                 19 Oct 2014 15:24             0:00:28             Outgoing, Call                Succeeded           
01413310066                               18 Oct 2014 13:23             0:00:00             Outgoing, Call                Canceled            
07446902387                               17 Oct 2014 18:19             0:00:00             Outgoing, Call                Canceled            
07446902387                               17 Oct 2014 18:11             0:00:27             Incoming, Call                Answered            
Mark pope (+447838467571)                 17 Oct 2014 16:34             0:00:25             Outgoing, Call                Succeeded           
Mark pope (+447838467571)                 17 Oct 2014 16:30             0:02:56             Outgoing, Call                Succeeded           
Mark pope (+447838467571)                 17 Oct 2014 16:07             0:06:42             Outgoing, Call                Succeeded           
Mark pope (+447838467571)                 17 Oct 2014 15:56             0:09:50             Outgoing, Call                Succeeded           
01412800308                               17 Oct 2014 15:33             0:01:35             Outgoing, Call                Succeeded           
01419421022                               17 Oct 2014 15:32             0:00:00             Outgoing, Call                Canceled            
02476501274                               17 Oct 2014 12:16             0:02:02             Incoming, Call                Answered            
Mark pope (+447838467571)                 17 Oct 2014 08:05             0:07:46             Outgoing, Call                Succeeded           
Mark pope (+447838467571)                 16 Oct 2014 21:48             0:09:48             Outgoing, Call                Succeeded           
Mark pope (+447838467571)                 16 Oct 2014 20:06             0:20:09             Outgoing, Call                Succeeded           
Mark pope (+447838467571)                 16 Oct 2014 19:00             0:00:30             Outgoing, Call                Succeeded           
Mark pope (+447838467571)                 16 Oct 2014 18:41             0:15:17             Outgoing, Call                Succeeded           
Mark pope (+447838467571)                 16 Oct 2014 18:17             0:18:45             Outgoing, Call                Succeeded           
mum (01419599627)                         16 Oct 2014 18:17             0:00:00             Outgoing, Call                Canceled            
mum (01419599627)                         16 Oct 2014 18:06             0:04:12             Outgoing, Call                Succeeded           
mum (01419599627)                         16 Oct 2014 18:04             0:00:00             Outgoing, Call                Canceled            
mum (07594383026)                         16 Oct 2014 18:04             0:00:00             Outgoing, Call                Canceled            
mum (07594383026)                         16 Oct 2014 18:03             0:00:50             Outgoing, Call                Succeeded           
Simon Voice (07774626249)                 16 Oct 2014 17:34             0:28:31             Outgoing, Call                Succeeded           
Mark pope (+447838467571)                 16 Oct 2014 13:25             0:11:48             Outgoing, Call                Succeeded           
Mark pope (+447838467571)                 16 Oct 2014 10:23             0:04:33             Outgoing, Call                Succeeded           
Mark pope (+447838467571)                 16 Oct 2014 10:23             0:00:15             Outgoing, Call                Succeeded           
+447782333123                             16 Oct 2014 07:34             0:00:05             Outgoing, Call                Succeeded           
Mark pope (+447838467571)                 16 Oct 2014 07:30             0:02:52             Outgoing, Call                Succeeded           
Mark pope (+447838467571)                 15 Oct 2014 20:21             1:42:44             Outgoing, Call                Succeeded           
Mark pope (+447838467571)                 15 Oct 2014 18:39             0:24:56             Outgoing, Call                Succeeded           
Simon Voice (07774626249)                 15 Oct 2014 16:31             0:00:00             Incoming, Call                Missed              
Mark pope (+447838467571)                 15 Oct 2014 15:50             0:02:01             Outgoing, Call                Succeeded           
+447782333123                             15 Oct 2014 15:41             0:00:51             Outgoing, Call                Succeeded           
07789272394                               15 Oct 2014 13:58             0:00:00             Incoming, Call                Missed              
07789272394                               15 Oct 2014 12:17             0:00:00             Incoming, Call                Missed              
Shadi (07831774024)                       15 Oct 2014 11:55             0:00:00             Incoming, Call                Missed              
Mark pope (+447838467571)                 15 Oct 2014 10:48             0:00:31             Outgoing, Call                Succeeded           
02081711660                               15 Oct 2014 09:03             0:00:29             Outgoing, Call                Succeeded           
Mark pope (+447838467571)                 15 Oct 2014 08:07             0:00:50             Outgoing, Call                Succeeded           
Mark pope (+447838467571)                 15 Oct 2014 06:47             0:06:02             Outgoing, Call                Succeeded           
Mark pope (+447838467571)                 15 Oct 2014 06:43             0:00:00             Outgoing, Call                Canceled            
Mark pope (+447838467571)                 14 Oct 2014 20:30             0:08:54             Outgoing, Call                Succeeded           
Mark pope (+447838467571)                 14 Oct 2014 18:16             0:09:43             Outgoing, Call                Succeeded           
Mark pope (+447838467571)                 14 Oct 2014 17:58             0:11:23             Outgoing, Call                Succeeded           
Mark pope (+447838467571)                 14 Oct 2014 12:46             0:10:27             Outgoing, Call                Succeeded           
Mark pope (+447838467571)                 14 Oct 2014 07:35             0:03:46             Outgoing, Call                Succeeded           
Mark pope (+447838467571)                 13 Oct 2014 21:26             0:04:59             Outgoing, Call                Succeeded           
mum (01419599627)                         13 Oct 2014 19:43             0:08:13             Outgoing, Call                Succeeded           
Mark pope (+447838467571)                 13 Oct 2014 19:42             0:00:00             Outgoing, Call                Canceled            
Mark pope (+447838467571)                 13 Oct 2014 19:18             0:03:37             Outgoing, Call                Succeeded           
Mark pope (+447838467571)                 13 Oct 2014 17:32             0:09:24             Outgoing, Call                Succeeded           
Dave Putman (07887885124)                 13 Oct 2014 17:30             0:00:55             Incoming, Call                Answered            
02081711660                               13 Oct 2014 17:24             0:01:58             Outgoing, Call                Succeeded           
+447782333123                             13 Oct 2014 17:23             0:00:49             Outgoing, Call                Succeeded           
Dave Putman (07887885124)                 13 Oct 2014 17:21             0:00:13             Outgoing, Call                Succeeded           
Dave Putman (07887885124)                 13 Oct 2014 17:18             0:00:03             Outgoing, Call                Succeeded           
Dave Putman (07887885124)                 13 Oct 2014 17:16             0:00:21             Incoming, Call                Answered            
02081711660                               13 Oct 2014 16:57             0:00:00             Outgoing, Call                Canceled            
02081711660                               13 Oct 2014 15:40             0:00:00             Incoming, Call                Missed              
Mark pope (+447838467571)                 13 Oct 2014 12:34             0:00:39             Outgoing, Call                Succeeded           
Mark pope (+447838467571)                 13 Oct 2014 12:34             0:00:25             Outgoing, Call                Succeeded           
mum (01419599627)                         13 Oct 2014 12:28             0:00:03             Outgoing, Call                Succeeded           
Mark pope (+447838467571)                 13 Oct 2014 07:28             0:00:59             Outgoing, Call                Succeeded           
Mark pope (+447838467571)                 12 Oct 2014 23:14             0:01:07             Outgoing, Call                Succeeded           
Shadi (07831774024)                       12 Oct 2014 19:45             0:00:00             Incoming, Call                Missed              
Mark pope (+447838467571)                 12 Oct 2014 19:32             0:01:00             Outgoing, Call                Succeeded           
07971900012                               12 Oct 2014 18:49             0:00:43             Incoming, Call                Answered            
07838467571                               12 Oct 2014 17:08             0:00:00             Incoming, Call                Missed              
01413324444                               11 Oct 2014 16:49             0:03:55             Outgoing, Call                Succeeded           
07450988703                               11 Oct 2014 14:11             0:00:26             Outgoing, Call                Succeeded           
Mark pope (+447838467571)                 11 Oct 2014 11:42             0:00:52             Outgoing, Call                Succeeded           
07446877599                               10 Oct 2014 20:07             0:00:13             Incoming, Call                Answered            
01412800308                               10 Oct 2014 20:06             0:00:50             Incoming, Call                Answered            
Mark pope (+447838467571)                 10 Oct 2014 18:22             0:00:48             Outgoing, Call                Succeeded           
Mark pope (+447838467571)                 10 Oct 2014 17:44             0:04:14             Outgoing, Call                Succeeded           
Mark pope (+447838467571)                 10 Oct 2014 16:19             0:06:18             Outgoing, Call                Succeeded           
Mark pope (+447838467571)                 10 Oct 2014 12:45             0:04:38             Outgoing, Call                Succeeded           
Simon Voice (07774626249)                 10 Oct 2014 08:24             0:00:00             Incoming, Call                Missed              
07838467571                               10 Oct 2014 07:10             0:01:27             Outgoing, Call                Succeeded           
07838467571                               9 Oct 2014 19:27              0:01:10             Outgoing, Call                Succeeded           
07838467571                               9 Oct 2014 17:47              0:39:32             Outgoing, Call                Succeeded           
07838467571                               9 Oct 2014 13:48              0:04:09             Outgoing, Call                Succeeded           
07838467571                               9 Oct 2014 12:54              0:14:21             Outgoing, Call                Succeeded           
02476825661                               9 Oct 2014 11:05              0:00:00             Incoming, Call                Missed              
07838467571                               9 Oct 2014 08:53              0:05:10             Incoming, Call                Answered            
Mark pope (+447838467571)                 9 Oct 2014 08:53              0:00:03             Outgoing, Call                Succeeded           
Mark pope (+447838467571)                 9 Oct 2014 07:53              0:01:21             Outgoing, Call                Succeeded           
Mark pope (+447838467571)                 8 Oct 2014 19:56              0:01:47             Outgoing, Call                Succeeded           
Shadi (07831774024)                       8 Oct 2014 19:41              0:01:32             Incoming, Call                Answered            
Mark pope (+447838467571)                 8 Oct 2014 18:52              0:08:50             Outgoing, Call                Succeeded           
Mark pope (+447838467571)                 8 Oct 2014 17:26              0:07:20             Outgoing, Call                Succeeded           
Irwin Fletcher (07501973410)              8 Oct 2014 14:01              0:22:24             Incoming, Call                Answered            
Shadi (07831774024)                       8 Oct 2014 13:01              0:00:40             Incoming, Call                Answered            
Mark pope (+447838467571)                 8 Oct 2014 12:14              0:00:00             Outgoing, Call                Canceled            
07720328859                               8 Oct 2014 07:07              0:00:14             Incoming, Call                Answered            
Shaun Smith (07817713479)                 7 Oct 2014 17:55              0:35:49             Incoming, Call                Answered            
02476825661                               7 Oct 2014 16:06              0:00:32             Outgoing, Call                Succeeded           
Irwin Fletcher (07501973410)              7 Oct 2014 16:02              0:00:38             Incoming, Call                Answered            
+441419591818                             6 Oct 2014 17:45              0:00:38             Outgoing, Call                Succeeded           
mum (07594383026)                         6 Oct 2014 17:43              0:00:32             Outgoing, Call                Succeeded           
mum (01419599627)                         6 Oct 2014 17:41              0:00:00             Outgoing, Call                Canceled            
mum (01419599627)                         6 Oct 2014 17:39              0:00:02             Outgoing, Call                Succeeded           
Simon Voice (07774626249)                 6 Oct 2014 15:20              0:00:35             Outgoing, Call                Succeeded           
02476823331                               6 Oct 2014 15:04              0:01:40             Incoming, Call                Answered            
02476823331                               6 Oct 2014 14:44              0:00:30             Outgoing, Call                Succeeded           
02476823331                               6 Oct 2014 14:41              0:00:00             Incoming, Call                Missed              
Mark pope (+447838467571)                 6 Oct 2014 13:29              0:00:14             Outgoing, Call                Succeeded           
03301241012                               6 Oct 2014 11:48              0:01:56             Outgoing, Call                Succeeded           
03301241012                               6 Oct 2014 11:47              0:00:58             Outgoing, Call                Succeeded           
01932601616                               6 Oct 2014 11:46              0:00:05             Outgoing, Call                Succeeded           
08000512592                               6 Oct 2014 11:25              0:12:50             Incoming, Call                Answered            
02476825661                               6 Oct 2014 11:17              0:00:51             Incoming, Call                Answered            
02476823331                               6 Oct 2014 10:59              0:07:56             Incoming, Call                Answered            
02476825661                               6 Oct 2014 10:12              0:01:51             Outgoing, Call                Succeeded           
mum (01419599627)                         5 Oct 2014 13:12              0:01:27             Outgoing, Call                Succeeded           
03301240233                               5 Oct 2014 11:34              0:01:41             Outgoing, Call                Succeeded           
01413310066                               5 Oct 2014 09:43              0:02:07             Outgoing, Call                Succeeded           
01413310066                               5 Oct 2014 09:40              0:00:00             Incoming, Call                Missed              
03301241835                               4 Oct 2014 18:37              0:25:13             Outgoing, Call                Succeeded           
Mark pope (+447838467571)                 4 Oct 2014 15:03              0:00:42             Outgoing, Call                Succeeded           
07838467571                               4 Oct 2014 15:02              0:00:00             Incoming, Call                Missed              
mum (01419599627)                         4 Oct 2014 14:55              0:01:12             Outgoing, Call                Succeeded           
Stewart Todd (+447447906040)              4 Oct 2014 14:10              0:09:16             Outgoing, Call                Succeeded           
Unknown                                   4 Oct 2014 12:06              0:00:00             Incoming, Call                Missed              
Vet (01413391228)                         4 Oct 2014 08:37              0:00:30             Outgoing, Call                Succeeded           
Mark pope (+447838467571)                 3 Oct 2014 18:19              0:00:00             Outgoing, Call                Canceled            
Mark pope (+447838467571)                 3 Oct 2014 18:14              0:00:53             Outgoing, Call                Succeeded           
Mark pope (+447838467571)                 3 Oct 2014 18:05              0:00:00             Outgoing, Call                Canceled            
Mark pope (+447838467571)                 3 Oct 2014 18:03              0:00:00             Outgoing, Call                Canceled            
07838467571                               3 Oct 2014 18:01              0:00:33             Incoming, Call                Answered            
Mark pope (+447838467571)                 3 Oct 2014 18:00              0:00:33             Outgoing, Call                Succeeded           
Mark pope (+447838467571)                 3 Oct 2014 17:59              0:00:18             Outgoing, Call                Succeeded           
Mark pope (+447838467571)                 3 Oct 2014 17:59              0:00:00             Outgoing, Call                Canceled            
Mark pope (+447838467571)                 3 Oct 2014 17:47              0:00:00             Outgoing, Call                Canceled            
Mark pope (+447838467571)                 3 Oct 2014 15:02              0:00:00             Outgoing, Call                Canceled            
Mark pope (+447838467571)                 3 Oct 2014 14:57              0:04:21             Outgoing, Call                Succeeded           
Mark pope (+447838467571)                 3 Oct 2014 14:20              0:05:41             Outgoing, Call                Succeeded           
Teresa Collabor8 (07920094929)            3 Oct 2014 14:01              0:00:00             Incoming, Call                Missed              
07595893195                               3 Oct 2014 13:08              0:01:01             Incoming, Call                Answered            
07595893195                               3 Oct 2014 12:38              0:02:52             Incoming, Call                Answered            
07595893195                               3 Oct 2014 09:17              0:00:13             Incoming, Call                Answered            
Mark pope (+447838467571)                 3 Oct 2014 08:27              0:05:47             Outgoing, Call                Succeeded           
Mark pope (+447838467571)                 3 Oct 2014 07:23              0:09:05             Outgoing, Call                Succeeded           
07838467571                               2 Oct 2014 22:02              0:06:11             Incoming, Call                Answered            
Mark pope (+447838467571)                 2 Oct 2014 20:49              0:12:16             Outgoing, Call                Succeeded           
Mark pope (+447838467571)                 2 Oct 2014 20:12              0:35:43             Outgoing, Call                Succeeded           
Shadi (07831774024)                       2 Oct 2014 19:54              0:00:00             Incoming, Call                Missed              
Mark pope (+447838467571)                 2 Oct 2014 17:14              0:36:19             Outgoing, Call                Succeeded           
Mark pope (+447838467571)                 2 Oct 2014 13:54              0:01:37             Outgoing, Call                Succeeded           
Mark pope (+447838467571)                 2 Oct 2014 12:05              0:14:31             Outgoing, Call                Succeeded           
Mark pope (+447838467571)                 2 Oct 2014 11:50              0:06:36             Outgoing, Call                Succeeded           
07853207214                               2 Oct 2014 09:44              0:00:45             Incoming, Call                Answered            
02476501274                               2 Oct 2014 07:57              0:02:05             Incoming, Call                Answered            
Mark pope (+447838467571)                 2 Oct 2014 07:37              0:04:39             Outgoing, Call                Succeeded           
Mark pope (+447838467571)                 1 Oct 2014 20:50              0:14:47             Outgoing, Call                Succeeded           
mum (01419599627)                         1 Oct 2014 20:10              0:02:50             Outgoing, Call                Succeeded           
Simon Voice (07774626249)                 1 Oct 2014 20:01              0:00:00             Outgoing, Call                Canceled            
Mark pope (+447838467571)                 1 Oct 2014 19:58              0:02:45             Outgoing, Call                Succeeded           
Mark pope (+447838467571)                 1 Oct 2014 19:33              0:00:27             Outgoing, Call                Succeeded           
08458724061                               1 Oct 2014 16:51              0:01:42             Incoming, Call                Answered            
02476501274                               1 Oct 2014 16:50              0:01:30             Outgoing, Call                Succeeded           
Mark pope (+447838467571)                 1 Oct 2014 16:41              0:08:19             Outgoing, Call                Succeeded           
02476501274                               1 Oct 2014 16:41              0:00:00             Outgoing, Call                Canceled            
02476501274                               1 Oct 2014 16:41              0:00:00             Outgoing, Call                Canceled            
03001240032                               1 Oct 2014 16:39              0:00:24             Outgoing, Call                Succeeded           
03001240032                               1 Oct 2014 16:39              0:00:16             Outgoing, Call                Succeeded           
07776165067                               1 Oct 2014 14:33              0:00:00             Incoming, Call                Missed              
Mark pope (+447838467571)                 1 Oct 2014 14:12              0:01:19             Outgoing, Call                Succeeded           
Simon Voice (07774626249)                 1 Oct 2014 14:11              0:00:00             Outgoing, Call                Canceled            
Simon Voice (07774626249)                 1 Oct 2014 11:36              0:00:00             Incoming, Call                Missed              
02071839040                               1 Oct 2014 10:37              0:00:00             Incoming, Call                Missed              
Mark pope (+447838467571)                 1 Oct 2014 07:42              0:03:42             Outgoing, Call                Succeeded           
Shadi (07831774024)                       30 Sep 2014 23:08             0:00:00             Incoming, Call                Missed              
Mark pope (+447838467571)                 30 Sep 2014 23:08             0:00:00             Outgoing, Call                Canceled            
Mark pope (+447838467571)                 30 Sep 2014 21:54             0:08:09             Outgoing, Call                Succeeded           
Mark pope (+447838467571)                 30 Sep 2014 20:23             0:11:43             Outgoing, Call                Succeeded           
Mark pope (+447838467571)                 30 Sep 2014 19:14             0:06:01             Outgoing, Call                Succeeded           
Shadi (07831774024)                       30 Sep 2014 18:59             0:00:00             Incoming, Call                Missed              
Mark pope (+447838467571)                 30 Sep 2014 18:40             0:07:49             Outgoing, Call                Succeeded           
07584614676                               30 Sep 2014 18:40             0:00:00             Outgoing, Call                Canceled            
07584614676                               30 Sep 2014 17:10             0:00:00             Incoming, Call                Missed              
Mark pope (+447838467571)                 30 Sep 2014 14:04             0:06:08             Outgoing, Call                Succeeded           
Mark pope (+447838467571)                 30 Sep 2014 08:28             0:01:01             Outgoing, Call                Succeeded           
Mark pope (+447838467571)                 30 Sep 2014 07:28             0:04:08             Outgoing, Call                Succeeded           
Mark pope (+447838467571)                 29 Sep 2014 19:47             0:29:12             Outgoing, Call                Succeeded           
Mark pope (+447838467571)                 29 Sep 2014 18:10             0:05:25             Outgoing, Call                Succeeded           
02476250500                               29 Sep 2014 14:43             0:01:53             Outgoing, Call                Succeeded           
02476250500                               29 Sep 2014 14:42             0:00:20             Outgoing, Call                Succeeded           
02476250500                               29 Sep 2014 14:39             0:00:00             Incoming, Call                Missed              
Mark pope (+447838467571)                 29 Sep 2014 12:12             0:09:43             Outgoing, Call                Succeeded           
Shaun Smith (+447817713479)               28 Sep 2014 17:19             0:40:54             Outgoing, Call                Succeeded           
07838467571                               28 Sep 2014 16:03             0:00:00             Incoming, Call                Missed              
Mark pope (+447838467571)                 28 Sep 2014 16:02             0:00:00             Outgoing, Call                Canceled            
Mark pope (+447838467571)                 28 Sep 2014 15:48             0:00:16             Outgoing, Call                Succeeded           
01413324444                               27 Sep 2014 16:27             0:00:00             Incoming, Call                Missed              
0800 Buster (01183520800)                 27 Sep 2014 15:16             0:00:08             Outgoing, Call                Succeeded           
mum (01419599627)                         27 Sep 2014 11:18             0:05:40             Outgoing, Call                Succeeded           
07838467571                               26 Sep 2014 13:58             0:00:08             Incoming, Call                Answered            
Mark pope (+447838467571)                 26 Sep 2014 13:58             0:00:00             Outgoing, Call                Canceled            
08458724061                               25 Sep 2014 11:07             0:00:00             Incoming, Call                Missed              
Contact (02070680765)                     25 Sep 2014 11:01             0:00:28             Incoming, Call                Answered            
Mark pope (+447838467571)                 25 Sep 2014 08:50             0:00:05             Outgoing, Call                Succeeded           
03001240020                               25 Sep 2014 07:00             0:00:40             Outgoing, Call                Succeeded           
mum (01419599627)                         24 Sep 2014 21:29             0:07:41             Outgoing, Call                Succeeded           
Keith Richards (07768080386)              23 Sep 2014 18:55             0:00:59             Incoming, Call                Answered            
02476250500                               23 Sep 2014 17:32             0:00:23             Outgoing, Call                Succeeded           
Mark pope (+447838467571)                 23 Sep 2014 11:52             0:00:15             Outgoing, Call                Succeeded           
Mark pope (+447838467571)                 23 Sep 2014 10:36             0:00:22             Outgoing, Call                Succeeded           
Mark pope (+447838467571)                 23 Sep 2014 10:35             0:00:11             Outgoing, Call                Succeeded           
Natasha (07730889523)                     22 Sep 2014 11:56             0:00:00             Incoming, Call                Missed              
02476825661                               22 Sep 2014 11:27             0:00:13             Outgoing, Call                Succeeded           
Mark pope (+447838467571)                 22 Sep 2014 11:20             0:00:03             Outgoing, Call                Succeeded           
01413391368                               20 Sep 2014 22:24             0:00:18             Outgoing, Call                Succeeded           
mum (07594383026)                         20 Sep 2014 13:33             0:00:00             Outgoing, Call                Canceled            
mum (01419599627)                         20 Sep 2014 13:32             0:00:00             Outgoing, Call                Canceled            
+441415527080                             20 Sep 2014 12:21             0:00:12             Outgoing, Call                Succeeded           
mum (01419599627)                         19 Sep 2014 20:41             0:08:11             Outgoing, Call                Succeeded           
Simon Voice (07774626249)                 19 Sep 2014 14:38             0:00:00             Incoming, Call                Missed              
